target datalayout = "e-m:e-p270:32:32-p271:32:32-p272:64:64-i64:64-i128:128-f80:128-n8:16:32:64-S128"
target triple = "x86_64-unknown-linux-gnu"

%"class.Assimp::FindDegeneratesProcess" = type <{ %"class.Assimp::BaseProcess", i8, i8, [6 x i8] }>
%"class.Assimp::BaseProcess" = type { ptr, ptr, ptr }

@.str = private unnamed_addr constant [13 x i8] c"PP_FD_REMOVE\00", align 1
@.str.1 = private unnamed_addr constant [16 x i8] c"PP_FD_CHECKAREA\00", align 1

; Function Attrs: mustprogress uwtable
define void @_ZN6Assimp22FindDegeneratesProcess15SetupPropertiesEPKNS_8ImporterE(ptr noundef nonnull align 8 dereferenceable(26) %this, ptr noundef %pImp) unnamed_addr #3 align 2 {
entry:
  %this.addr = alloca ptr, align 8
  %pImp.addr = alloca ptr, align 8
  store ptr %this, ptr %this.addr, align 8
  store ptr %pImp, ptr %pImp.addr, align 8
  %this1 = load ptr, ptr %this.addr, align 8
  %0 = load ptr, ptr %pImp.addr, align 8
  %call = call noundef i32 @_ZNK6Assimp8Importer18GetPropertyIntegerEPKci(ptr noundef nonnull align 8 dereferenceable(8) %0, ptr noundef @.str, i32 noundef 0)
  %cmp = icmp ne i32 0, %call
  %mConfigRemoveDegenerates = getelementptr inbounds %"class.Assimp::FindDegeneratesProcess", ptr %this1, i32 0, i32 1
  %frombool = zext i1 %cmp to i8
  store i8 %frombool, ptr %mConfigRemoveDegenerates, align 8
  %1 = load ptr, ptr %pImp.addr, align 8
  %call2 = call noundef i32 @_ZNK6Assimp8Importer18GetPropertyIntegerEPKci(ptr noundef nonnull align 8 dereferenceable(8) %1, ptr noundef @.str.1, i32 noundef -1)
  %cmp3 = icmp ne i32 0, %call2
  %mConfigCheckAreaOfTriangle = getelementptr inbounds %"class.Assimp::FindDegeneratesProcess", ptr %this1, i32 0, i32 2
  %frombool4 = zext i1 %cmp3 to i8
  store i8 %frombool4, ptr %mConfigCheckAreaOfTriangle, align 1
  ret void
}