; Function Attrs: mustprogress uwtable
define void @_ZN6Assimp22FindDegeneratesProcess15SetupPropertiesEPKNS_8ImporterE(ptr nocapture noundef nonnull writeonly align 8 dereferenceable(26) %this, ptr noundef nonnull %pImp) unnamed_addr #3 align 2 {
entry:
  %call = tail call noundef i32 @_ZNK6Assimp8Importer18GetPropertyIntegerEPKci(ptr noundef nonnull align 8 dereferenceable(8) %pImp, ptr noundef nonnull @.str, i32 noundef 0)
  %cmp = icmp ne i32 %call, 0
  %mConfigRemoveDegenerates = getelementptr inbounds i8, ptr %this, i64 24
  %frombool = zext i1 %cmp to i8
  store i8 %frombool, ptr %mConfigRemoveDegenerates, align 8
  %call2 = tail call noundef i32 @_ZNK6Assimp8Importer18GetPropertyIntegerEPKci(ptr noundef nonnull align 8 dereferenceable(8) %pImp, ptr noundef nonnull @.str.1, i32 noundef -1)
  %cmp3 = icmp ne i32 %call2, 0
  %mConfigCheckAreaOfTriangle = getelementptr inbounds i8, ptr %this, i64 25
  %frombool4 = zext i1 %cmp3 to i8
  store i8 %frombool4, ptr %mConfigCheckAreaOfTriangle, align 1
  ret void
}